; Function Attrs: nofree norecurse nosync nounwind memory(argmem: readwrite) uwtable
define internal noundef i32 @rgtc2s_block(ptr noundef writeonly captures(none) %0, i64 noundef %1, ptr noundef readonly captures(none) %2) #1 {
  %4 = alloca [64 x i8], align 16
  %5 = alloca [64 x i8], align 16
  call void @llvm.lifetime.start.p0(i64 64, ptr nonnull %4) #7
  call void @llvm.lifetime.start.p0(i64 64, ptr nonnull %5) #7
  call fastcc void @rgtc1_block_internal(ptr noundef nonnull %4, i64 noundef 16, ptr noundef readonly %2, i32 noundef 1, i32 noundef 0, i32 noundef 0, i32 noundef 4)
  %6 = getelementptr inbounds nuw i8, ptr %2, i64 8
  call fastcc void @rgtc1_block_internal(ptr noundef nonnull %5, i64 noundef 16, ptr noundef nonnull readonly %6, i32 noundef 1, i32 noundef 0, i32 noundef 0, i32 noundef 4)
  br label %.preheader.i

.preheader.i:                                     ; preds = %33, %3
  %indvars.iv34.i = phi i64 [ 0, %3 ], [ %indvars.iv.next35.i, %33 ]
  %7 = mul nsw i64 %indvars.iv34.i, %1
  %invariant.gep.i = getelementptr i8, ptr %0, i64 %7
  %8 = shl nuw nsw i64 %indvars.iv34.i, 4
  br label %9

9:                                                ; preds = %29, %.preheader.i
  %indvars.iv.i = phi i64 [ 0, %.preheader.i ], [ %indvars.iv.next.i, %29 ]
  %10 = shl nuw nsw i64 %indvars.iv.i, 2
  %gep.i = getelementptr i8, ptr %invariant.gep.i, i64 %10
  %11 = add nuw nsw i64 %10, %8
  %12 = getelementptr inbounds nuw [64 x i8], ptr %4, i64 0, i64 %11
  %13 = load i8, ptr %12, align 4, !tbaa !23
  %14 = zext i8 %13 to i32
  %15 = getelementptr inbounds nuw [64 x i8], ptr %5, i64 0, i64 %11
  %16 = load i8, ptr %15, align 4, !tbaa !23
  %17 = zext i8 %16 to i32
  %18 = mul nuw nsw i32 %14, %14
  %19 = mul nuw nsw i32 %17, %17
  %20 = add nuw nsw i32 %19, %18
  %21 = icmp samesign ult i32 %20, 65024
  br i1 %21, label %22, label %29

22:                                               ; preds = %9
  %.lhs.trunc.i = sub nuw nsw i32 65025, %20
  %23 = lshr i32 %.lhs.trunc.i, 1
  %24 = uitofp nneg i32 %23 to float
  %25 = tail call nsz float @llvm.sqrt.f32(float %24)
  %26 = fpext nsz float %25 to double
  %27 = tail call i64 @llvm.lrint.i64.f64(double %26)
  %28 = trunc i64 %27 to i8
  br label %29

29:                                               ; preds = %22, %9
  %.028.i = phi i8 [ %28, %22 ], [ 127, %9 ]
  store i8 %13, ptr %gep.i, align 1, !tbaa !23
  %30 = getelementptr inbounds nuw i8, ptr %gep.i, i64 1
  store i8 %16, ptr %30, align 1, !tbaa !23
  %31 = getelementptr inbounds nuw i8, ptr %gep.i, i64 2
  store i8 %.028.i, ptr %31, align 1, !tbaa !23
  %32 = getelementptr inbounds nuw i8, ptr %gep.i, i64 3
  store i8 -1, ptr %32, align 1, !tbaa !23
  %indvars.iv.next.i = add nuw nsw i64 %indvars.iv.i, 1
  %exitcond.not.i = icmp eq i64 %indvars.iv.next.i, 4
  br i1 %exitcond.not.i, label %33, label %9, !llvm.loop !33

33:                                               ; preds = %29
  %indvars.iv.next35.i = add nuw nsw i64 %indvars.iv34.i, 1
  %exitcond37.not.i = icmp eq i64 %indvars.iv.next35.i, 4
  br i1 %exitcond37.not.i, label %rgtc2_block_internal.exit, label %.preheader.i, !llvm.loop !34

rgtc2_block_internal.exit:                        ; preds = %33
  call void @llvm.lifetime.end.p0(i64 64, ptr nonnull %5) #7
  call void @llvm.lifetime.end.p0(i64 64, ptr nonnull %4) #7
  ret i32 16
}